; Function Attrs: nounwind uwtable
define hidden void @zim_RecursiveTreeIterator_getPrefix(ptr nocapture noundef readonly %0, ptr nocapture noundef writeonly %1) #0 {
  %3 = getelementptr inbounds i8, ptr %0, i64 32
  %4 = load ptr, ptr %3, align 8
  %5 = getelementptr inbounds i8, ptr %4, i64 -152
  %6 = getelementptr inbounds i8, ptr %0, i64 44
  %7 = load i32, ptr %6, align 4
  %.not = icmp eq i32 %7, 0
  br i1 %.not, label %.critedge, label %8

8:                                                ; preds = %2
  tail call void @zend_wrong_parameters_none_error() #10
  %9 = load ptr, ptr getelementptr inbounds (%struct._zend_executor_globals, ptr @executor_globals, i64 0, i32 50), align 8
  %10 = icmp ne ptr %9, null
  tail call void @llvm.assume(i1 %10)
  br label %22

.critedge:                                        ; preds = %2
  %11 = load ptr, ptr %5, align 8
  %.not9 = icmp eq ptr %11, null
  br i1 %.not9, label %12, label %15

12:                                               ; preds = %.critedge
  tail call void (ptr, ptr, ...) @zend_throw_error(ptr noundef null, ptr noundef nonnull @.str) #10
  %13 = load ptr, ptr getelementptr inbounds (%struct._zend_executor_globals, ptr @executor_globals, i64 0, i32 50), align 8
  %14 = icmp ne ptr %13, null
  tail call void @llvm.assume(i1 %14)
  br label %22

15:                                               ; preds = %.critedge
  %16 = tail call fastcc ptr @spl_recursive_tree_iterator_get_prefix(ptr noundef nonnull %5)
  store ptr %16, ptr %1, align 8
  %17 = getelementptr inbounds i8, ptr %16, i64 4
  %18 = load i32, ptr %17, align 4
  %19 = and i32 %18, 64
  %.not10 = icmp eq i32 %19, 0
  %20 = select i1 %.not10, i32 262, i32 6
  %21 = getelementptr inbounds i8, ptr %1, i64 8
  store i32 %20, ptr %21, align 8
  br label %22

22:                                               ; preds = %15, %12, %8
  ret void
}